; Function Attrs: nounwind uwtable
define ptr @Java_java_net_Inet4AddressImpl_getLocalHostName(ptr noundef %0, ptr nocapture noundef readnone %1) local_unnamed_addr #0 {
  %3 = alloca [1026 x i8], align 16
  store i8 0, ptr %3, align 16
  %4 = call i32 @gethostname(ptr noundef nonnull %3, i64 noundef 1026) #11
  %.not = icmp eq i32 %4, 0
  br i1 %.not, label %6, label %5

5:                                                ; preds = %2
  call void @llvm.memcpy.p0.p0.i64(ptr noundef nonnull align 16 dereferenceable(10) %3, ptr noundef nonnull align 1 dereferenceable(10) @.str, i64 10, i1 false) #11
  br label %8

6:                                                ; preds = %2
  %7 = getelementptr inbounds i8, ptr %3, i64 1025
  store i8 0, ptr %7, align 1
  br label %8

8:                                                ; preds = %6, %5
  %9 = load ptr, ptr %0, align 8
  %10 = getelementptr inbounds i8, ptr %9, i64 1336
  %11 = load ptr, ptr %10, align 8
  %12 = call ptr %11(ptr noundef nonnull %0, ptr noundef nonnull %3) #11
  ret ptr %12
}